; Function Attrs: mustprogress nounwind uwtable
define hidden void @_ZN3fpa6solverD2Ev(ptr noundef nonnull align 8 dereferenceable(1556) %this) unnamed_addr #4 align 2 personality ptr @__gxx_personality_v0 {
entry:
  store ptr getelementptr inbounds ({ [76 x ptr], [10 x ptr], [5 x ptr], [11 x ptr] }, ptr @_ZTVN3fpa6solverE, i64 0, i32 0, i64 2), ptr %this, align 8
  %add.ptr = getelementptr inbounds i8, ptr %this, i64 32
  store ptr getelementptr inbounds ({ [76 x ptr], [10 x ptr], [5 x ptr], [11 x ptr] }, ptr @_ZTVN3fpa6solverE, i64 0, i32 1, i64 2), ptr %add.ptr, align 8
  %add.ptr2 = getelementptr inbounds i8, ptr %this, i64 40
  store ptr getelementptr inbounds ({ [76 x ptr], [10 x ptr], [5 x ptr], [11 x ptr] }, ptr @_ZTVN3fpa6solverE, i64 0, i32 2, i64 2), ptr %add.ptr2, align 8
  %add.ptr3 = getelementptr inbounds i8, ptr %this, i64 48
  store ptr getelementptr inbounds ({ [76 x ptr], [10 x ptr], [5 x ptr], [11 x ptr] }, ptr @_ZTVN3fpa6solverE, i64 0, i32 3, i64 2), ptr %add.ptr3, align 8
  %m = getelementptr inbounds i8, ptr %this, i64 72
  %0 = load ptr, ptr %m, align 8
  %m_conversions = getelementptr inbounds i8, ptr %this, i64 1520
  invoke void @_Z22dec_ref_map_key_valuesI11ast_managerS0_7obj_mapI4exprPS2_EEvRT_RT0_RT1_(ptr noundef nonnull align 8 dereferenceable(976) %0, ptr noundef nonnull align 8 dereferenceable(976) %0, ptr noundef nonnull align 8 dereferenceable(24) %m_conversions)
          to label %invoke.cont unwind label %terminate.lpad

invoke.cont:                                      ; preds = %entry
  %m_nodes = getelementptr inbounds i8, ptr %this, i64 1544
  %1 = load ptr, ptr %m_nodes, align 8
  %tobool.not.i.i.i = icmp eq ptr %1, null
  br i1 %tobool.not.i.i.i, label %_ZN7svectorISt5tupleIJPN3euf5enodeEbbEEjED2Ev.exit, label %if.then.i.i.i

if.then.i.i.i:                                    ; preds = %invoke.cont
  %add.ptr.i.i.i.i = getelementptr inbounds i8, ptr %1, i64 -8
  invoke void @_ZN6memory10deallocateEPv(ptr noundef nonnull %add.ptr.i.i.i.i)
          to label %_ZN7svectorISt5tupleIJPN3euf5enodeEbbEEjED2Ev.exit unwind label %terminate.lpad.i.i

terminate.lpad.i.i:                               ; preds = %if.then.i.i.i
  %2 = landingpad { ptr, i32 }
          catch ptr null
  %3 = extractvalue { ptr, i32 } %2, 0
  tail call void @__clang_call_terminate(ptr %3) #18
  unreachable

_ZN7svectorISt5tupleIJPN3euf5enodeEbbEEjED2Ev.exit: ; preds = %invoke.cont, %if.then.i.i.i
  %4 = load ptr, ptr %m_conversions, align 8
  %cmp.i.i.i.i = icmp eq ptr %4, null
  br i1 %cmp.i.i.i.i, label %_ZN7obj_mapI4exprPS0_ED2Ev.exit, label %for.cond.preheader.i.i.i.i

for.cond.preheader.i.i.i.i:                       ; preds = %_ZN7svectorISt5tupleIJPN3euf5enodeEbbEEjED2Ev.exit
  invoke void @_ZN6memory10deallocateEPv(ptr noundef nonnull %4)
          to label %_ZN7obj_mapI4exprPS0_ED2Ev.exit unwind label %terminate.lpad.i.i1

terminate.lpad.i.i1:                              ; preds = %for.cond.preheader.i.i.i.i
  %5 = landingpad { ptr, i32 }
          catch ptr null
  %6 = extractvalue { ptr, i32 } %5, 0
  tail call void @__clang_call_terminate(ptr %6) #18
  unreachable

_ZN7obj_mapI4exprPS0_ED2Ev.exit:                  ; preds = %_ZN7svectorISt5tupleIJPN3euf5enodeEbbEEjED2Ev.exit, %for.cond.preheader.i.i.i.i
  store ptr null, ptr %m_conversions, align 8
  %m_rw = getelementptr inbounds i8, ptr %this, i64 896
  store ptr getelementptr inbounds ({ [4 x ptr] }, ptr @_ZTV15fpa2bv_rewriter, i64 0, i32 0, i64 2), ptr %m_rw, align 8
  %m_cfg.i = getelementptr inbounds i8, ptr %this, i64 1432
  tail call void @_ZN19fpa2bv_rewriter_cfgD2Ev(ptr noundef nonnull align 8 dereferenceable(60) %m_cfg.i) #17
  tail call void @_ZN12rewriter_tplI19fpa2bv_rewriter_cfgED2Ev(ptr noundef nonnull align 8 dereferenceable(536) %m_rw) #17
  %m_converter = getelementptr inbounds i8, ptr %this, i64 128
  tail call void @_ZN16fpa2bv_converterD2Ev(ptr noundef nonnull align 8 dereferenceable(760) %m_converter) #17
  %m_th_rw = getelementptr inbounds i8, ptr %this, i64 112
  tail call void @_ZN11th_rewriterD1Ev(ptr noundef nonnull align 8 dereferenceable(16) %m_th_rw) #17
  tail call void @_ZN3euf13th_euf_solverD2Ev(ptr noundef nonnull align 8 dereferenceable(108) %this) #17
  ret void

terminate.lpad:                                   ; preds = %entry
  %7 = landingpad { ptr, i32 }
          catch ptr null
  %8 = extractvalue { ptr, i32 } %7, 0
  tail call void @__clang_call_terminate(ptr %8) #18
  unreachable
}